; Function Attrs: mustprogress nofree norecurse nosync nounwind willreturn memory(read, inaccessiblemem: none) uwtable
define hidden noundef i32 @_ZNK5ceres8internal7Program13NumParametersEv(ptr noundef nonnull readonly align 8 captures(none) dereferenceable(56) %0) local_unnamed_addr #14 align 2 {
  %2 = load ptr, ptr %0, align 8, !tbaa !19
  %3 = getelementptr inbounds nuw i8, ptr %0, i64 8
  %4 = load ptr, ptr %3, align 8, !tbaa !19
  %.not8 = icmp eq ptr %2, %4
  br i1 %.not8, label %._crit_edge, label %.lr.ph

._crit_edge:                                      ; preds = %.lr.ph, %1
  %.0.lcssa = phi i32 [ 0, %1 ], [ %8, %.lr.ph ]
  ret i32 %.0.lcssa

.lr.ph:                                           ; preds = %1, %.lr.ph
  %.010 = phi i32 [ %8, %.lr.ph ], [ 0, %1 ]
  %.sroa.05.09 = phi ptr [ %9, %.lr.ph ], [ %2, %1 ]
  %5 = load ptr, ptr %.sroa.05.09, align 8, !tbaa !20
  %6 = getelementptr inbounds nuw i8, ptr %5, i64 8
  %7 = load i32, ptr %6, align 8, !tbaa !44
  %8 = add nsw i32 %7, %.010
  %9 = getelementptr inbounds nuw i8, ptr %.sroa.05.09, i64 8
  %.not = icmp eq ptr %9, %4
  br i1 %.not, label %._crit_edge, label %.lr.ph
}